; Function Attrs: mustprogress nounwind uwtable
define void @_ZN3net17PacketNumberQueueD2Ev(ptr noundef nonnull align 8 dereferenceable(48) %0) unnamed_addr #5 align 2 personality ptr @__gxx_personality_v0 {
  %2 = getelementptr inbounds nuw i8, ptr %0, i64 16
  %3 = load ptr, ptr %2, align 8, !tbaa !125
  invoke void @_ZNSt8_Rb_treeIN3net8IntervalImEES2_St9_IdentityIS2_ENS0_11IntervalSetImE18IntervalComparatorESaIS2_EE8_M_eraseEPSt13_Rb_tree_nodeIS2_E(ptr noundef nonnull align 8 dereferenceable(48) %0, ptr noundef %3)
          to label %_ZN3net11IntervalSetImED2Ev.exit unwind label %4

4:                                                ; preds = %1
  %5 = landingpad { ptr, i32 }
          catch ptr null
  %6 = extractvalue { ptr, i32 } %5, 0
  tail call void @__clang_call_terminate(ptr %6) #31
  unreachable

_ZN3net11IntervalSetImED2Ev.exit:                 ; preds = %1
  ret void
}